; ModuleID = '47/115.c'
source_filename = "47/115.c"
target datalayout = "e-m:e-p270:32:32-p271:32:32-p272:64:64-i64:64-f80:128-n8:16:32:64-S128"
target triple = "x86_64-pc-linux-gnu"

@.str = private unnamed_addr constant [3 x i8] c"%d\00", align 1
@.str.1 = private unnamed_addr constant [4 x i8] c"%d \00", align 1
@.str.2 = private unnamed_addr constant [4 x i8] c"%d\0A\00", align 1

; Function Attrs: noinline nounwind uwtable
define dso_local void @main() #0 {
  %1 = alloca i32, align 4
  %2 = alloca i32, align 4
  %3 = alloca i32*, align 8
  %4 = alloca i32*, align 8
  %5 = call i32 (i8*, ...) @__isoc99_scanf(i8* getelementptr inbounds ([3 x i8], [3 x i8]* @.str, i64 0, i64 0), i32* %2)
  %6 = load i32, i32* %2, align 4
  %7 = sext i32 %6 to i64
  %8 = mul i64 4, %7
  %9 = call noalias i8* @malloc(i64 %8) #3
  %10 = bitcast i8* %9 to i32*
  store i32* %10, i32** %3, align 8
  %11 = load i32, i32* %2, align 4
  %12 = sext i32 %11 to i64
  %13 = mul i64 4, %12
  %14 = call noalias i8* @malloc(i64 %13) #3
  %15 = bitcast i8* %14 to i32*
  store i32* %15, i32** %4, align 8
  store i32 0, i32* %1, align 4
  br label %16

16:                                               ; preds = %26, %0
  %17 = load i32, i32* %1, align 4
  %18 = load i32, i32* %2, align 4
  %19 = icmp slt i32 %17, %18
  br i1 %19, label %20, label %29

20:                                               ; preds = %16
  %21 = load i32*, i32** %3, align 8
  %22 = load i32, i32* %1, align 4
  %23 = sext i32 %22 to i64
  %24 = getelementptr inbounds i32, i32* %21, i64 %23
  %25 = call i32 (i8*, ...) @__isoc99_scanf(i8* getelementptr inbounds ([3 x i8], [3 x i8]* @.str, i64 0, i64 0), i32* %24)
  br label %26

26:                                               ; preds = %20
  %27 = load i32, i32* %1, align 4
  %28 = add nsw i32 %27, 1
  store i32 %28, i32* %1, align 4
  br label %16

29:                                               ; preds = %16
  store i32 0, i32* %1, align 4
  br label %30

30:                                               ; preds = %47, %29
  %31 = load i32, i32* %1, align 4
  %32 = load i32, i32* %2, align 4
  %33 = icmp slt i32 %31, %32
  br i1 %33, label %34, label %50

34:                                               ; preds = %30
  %35 = load i32*, i32** %3, align 8
  %36 = load i32, i32* %2, align 4
  %37 = load i32, i32* %1, align 4
  %38 = sub nsw i32 %36, %37
  %39 = sub nsw i32 %38, 1
  %40 = sext i32 %39 to i64
  %41 = getelementptr inbounds i32, i32* %35, i64 %40
  %42 = load i32, i32* %41, align 4
  %43 = load i32*, i32** %4, align 8
  %44 = load i32, i32* %1, align 4
  %45 = sext i32 %44 to i64
  %46 = getelementptr inbounds i32, i32* %43, i64 %45
  store i32 %42, i32* %46, align 4
  br label %47

47:                                               ; preds = %34
  %48 = load i32, i32* %1, align 4
  %49 = add nsw i32 %48, 1
  store i32 %49, i32* %1, align 4
  br label %30

50:                                               ; preds = %30
  store i32 0, i32* %1, align 4
  br label %51

51:                                               ; preds = %63, %50
  %52 = load i32, i32* %1, align 4
  %53 = load i32, i32* %2, align 4
  %54 = sub nsw i32 %53, 1
  %55 = icmp slt i32 %52, %54
  br i1 %55, label %56, label %66

56:                                               ; preds = %51
  %57 = load i32*, i32** %4, align 8
  %58 = load i32, i32* %1, align 4
  %59 = sext i32 %58 to i64
  %60 = getelementptr inbounds i32, i32* %57, i64 %59
  %61 = load i32, i32* %60, align 4
  %62 = call i32 (i8*, ...) @printf(i8* getelementptr inbounds ([4 x i8], [4 x i8]* @.str.1, i64 0, i64 0), i32 %61)
  br label %63

63:                                               ; preds = %56
  %64 = load i32, i32* %1, align 4
  %65 = add nsw i32 %64, 1
  store i32 %65, i32* %1, align 4
  br label %51

66:                                               ; preds = %51
  %67 = load i32*, i32** %4, align 8
  %68 = load i32, i32* %2, align 4
  %69 = sub nsw i32 %68, 1
  %70 = sext i32 %69 to i64
  %71 = getelementptr inbounds i32, i32* %67, i64 %70
  %72 = load i32, i32* %71, align 4
  %73 = call i32 (i8*, ...) @printf(i8* getelementptr inbounds ([4 x i8], [4 x i8]* @.str.2, i64 0, i64 0), i32 %72)
  ret void
}

declare dso_local i32 @__isoc99_scanf(i8*, ...) #1

; Function Attrs: nounwind
declare dso_local noalias i8* @malloc(i64) #2

declare dso_local i32 @printf(i8*, ...) #1


!llvm.module.flags = !{!0}
!llvm.ident = !{!1}

!0 = !{i32 1, !"wchar_size", i32 4}
!1 = !{!"clang version 10.0.0-4ubuntu1 "}
